target datalayout = "e-m:e-p270:32:32-p271:32:32-p272:64:64-i64:64-i128:128-f80:128-n8:16:32:64-S128"
target triple = "x86_64-pc-linux-gnu"

@.str.1 = private unnamed_addr constant [8 x i8] c"UNKNOWN\00", align 1
@.str.2 = private unnamed_addr constant [17 x i8] c"SEARCH_NOLIBRARY\00", align 1
@.str.3 = private unnamed_addr constant [15 x i8] c"SEARCH_LIBRARY\00", align 1
@.str.4 = private unnamed_addr constant [13 x i8] c"SEARCH_ALIAS\00", align 1
@.str.5 = private unnamed_addr constant [16 x i8] c"ANTI_DEPENDENCY\00", align 1

; Function Attrs: mustprogress nounwind uwtable
define noundef ptr @_ZN4LIEF2PE9to_stringENS0_21AuxiliaryWeakExternal15CHARACTERISTICSE(i32 noundef %0) #1 {
  %2 = alloca ptr, align 8
  %3 = alloca i32, align 4
  store i32 %0, ptr %3, align 4, !tbaa !43
  %4 = load i32, ptr %3, align 4, !tbaa !43
  switch i32 %4, label %5 [
    i32 1, label %6
    i32 2, label %7
    i32 3, label %8
    i32 4, label %9
  ]

5:                                                ; preds = %1
  store ptr @.str.1, ptr %2, align 8
  br label %10

6:                                                ; preds = %1
  store ptr @.str.2, ptr %2, align 8
  br label %10

7:                                                ; preds = %1
  store ptr @.str.3, ptr %2, align 8
  br label %10

8:                                                ; preds = %1
  store ptr @.str.4, ptr %2, align 8
  br label %10

9:                                                ; preds = %1
  store ptr @.str.5, ptr %2, align 8
  br label %10

10:                                               ; preds = %9, %8, %7, %6, %5
  %11 = load ptr, ptr %2, align 8
  ret ptr %11
}